; Function Attrs: nounwind uwtable
define hidden void @SDL_DrawGPUPrimitivesIndirect_REAL(ptr noundef readonly captures(address_is_null) %0, ptr noundef %1, i32 noundef %2, i32 noundef %3) local_unnamed_addr #0 {
  %5 = icmp eq ptr %0, null
  br i1 %5, label %6, label %8

6:                                                ; preds = %4
  %7 = tail call zeroext i1 (ptr, ...) @SDL_SetError_REAL(ptr noundef nonnull @.str.4, ptr noundef nonnull @.str.225) #7
  br label %.thread

8:                                                ; preds = %4
  %9 = icmp eq ptr %1, null
  br i1 %9, label %10, label %12

10:                                               ; preds = %8
  %11 = tail call zeroext i1 (ptr, ...) @SDL_SetError_REAL(ptr noundef nonnull @.str.4, ptr noundef nonnull @.str.176) #7
  br label %.thread

12:                                               ; preds = %8
  %13 = load ptr, ptr %0, align 8
  %14 = load ptr, ptr %13, align 8
  %15 = getelementptr inbounds nuw i8, ptr %14, i64 684
  %16 = load i8, ptr %15, align 4, !range !5, !noundef !6
  %17 = trunc nuw i8 %16 to i1
  br i1 %17, label %18, label %30

18:                                               ; preds = %12
  %19 = getelementptr inbounds nuw i8, ptr %0, i64 8
  %20 = load i8, ptr %19, align 8, !range !5, !noundef !6
  %21 = trunc nuw i8 %20 to i1
  br i1 %21, label %24, label %.preheader28

.preheader28:                                     ; preds = %18, %.preheader28
  %22 = tail call i32 @SDL_ReportAssertion_REAL(ptr noundef nonnull @SDL_DrawGPUPrimitivesIndirect_REAL.sdl_assert_data, ptr noundef nonnull @__func__.SDL_DrawGPUPrimitivesIndirect_REAL, ptr noundef nonnull @.str.8, i32 noundef 2084) #7
  switch i32 %22, label %.thread [
    i32 0, label %.preheader28
    i32 1, label %23
  ]

23:                                               ; preds = %.preheader28
  tail call void @llvm.debugtrap()
  br label %.thread

24:                                               ; preds = %18
  %25 = getelementptr inbounds nuw i8, ptr %13, i64 72
  %26 = load i8, ptr %25, align 8, !range !5, !noundef !6
  %27 = trunc nuw i8 %26 to i1
  br i1 %27, label %30, label %.preheader

.preheader:                                       ; preds = %24, %.preheader
  %28 = tail call i32 @SDL_ReportAssertion_REAL(ptr noundef nonnull @SDL_DrawGPUPrimitivesIndirect_REAL.sdl_assert_data.256, ptr noundef nonnull @__func__.SDL_DrawGPUPrimitivesIndirect_REAL, ptr noundef nonnull @.str.8, i32 noundef 2085) #7
  switch i32 %28, label %.thread [
    i32 0, label %.preheader
    i32 1, label %29
  ]

29:                                               ; preds = %.preheader
  tail call void @llvm.debugtrap()
  br label %.thread

30:                                               ; preds = %24, %12
  %31 = getelementptr inbounds nuw i8, ptr %14, i64 312
  %32 = load ptr, ptr %31, align 8
  tail call void %32(ptr noundef nonnull %13, ptr noundef nonnull %1, i32 noundef %2, i32 noundef %3) #7
  br label %.thread

.thread:                                          ; preds = %.preheader28, %.preheader, %29, %23, %30, %10, %6
  ret void
}